; Function Attrs: mustprogress nofree norecurse nosync nounwind willreturn memory(argmem: readwrite) uwtable
define void @_ZN6marisa8grimoire2io6Writer4swapERS2_(ptr noundef nonnull align 8 captures(none) dereferenceable(25) %0, ptr noundef nonnull align 8 captures(none) dereferenceable(25) %1) local_unnamed_addr #11 align 2 {
  %3 = load ptr, ptr %0, align 8, !tbaa !27
  %4 = load ptr, ptr %1, align 8, !tbaa !27
  store ptr %4, ptr %0, align 8, !tbaa !27
  store ptr %3, ptr %1, align 8, !tbaa !27
  %5 = getelementptr inbounds nuw i8, ptr %0, i64 8
  %6 = getelementptr inbounds nuw i8, ptr %1, i64 8
  %7 = load i32, ptr %5, align 8, !tbaa !28
  %8 = load i32, ptr %6, align 8, !tbaa !28
  store i32 %8, ptr %5, align 8, !tbaa !28
  store i32 %7, ptr %6, align 8, !tbaa !28
  %9 = getelementptr inbounds nuw i8, ptr %0, i64 16
  %10 = getelementptr inbounds nuw i8, ptr %1, i64 16
  %11 = load ptr, ptr %9, align 8, !tbaa !29
  %12 = load ptr, ptr %10, align 8, !tbaa !29
  store ptr %12, ptr %9, align 8, !tbaa !29
  store ptr %11, ptr %10, align 8, !tbaa !29
  %13 = getelementptr inbounds nuw i8, ptr %0, i64 24
  %14 = getelementptr inbounds nuw i8, ptr %1, i64 24
  %15 = load i8, ptr %13, align 8, !tbaa !30, !range !15, !noundef !16
  %16 = load i8, ptr %14, align 8, !tbaa !30, !range !15, !noundef !16
  store i8 %16, ptr %13, align 8, !tbaa !30
  store i8 %15, ptr %14, align 8, !tbaa !30
  ret void
}